; Function Attrs: mustprogress uwtable
define hidden void @_ZN5osgeo4proj9operation26CoordinateOperationContextC2Ev(ptr noundef nonnull writeonly align 8 captures(none) dereferenceable(16) initializes((0, 8)) %0) unnamed_addr #2 align 2 personality ptr @__gxx_personality_v0 {
  store ptr getelementptr inbounds nuw inrange(-16, 16) (i8, ptr @_ZTVN5osgeo4proj9operation26CoordinateOperationContextE, i64 16), ptr %0, align 8, !tbaa !3
  tail call void @llvm.experimental.noalias.scope.decl(metadata !10)
  %2 = tail call noalias noundef nonnull dereferenceable(128) ptr @_Znwm(i64 noundef 128) #34, !noalias !10
  tail call void @llvm.memset.p0.i64(ptr noundef nonnull align 16 dereferenceable(128) %2, i8 0, i64 128, i1 false), !noalias !10
  invoke void @_ZN5osgeo4proj9operation26CoordinateOperationContext7PrivateC2Ev(ptr noundef nonnull align 8 dereferenceable(128) %2)
          to label %_ZSt11make_uniqueIN5osgeo4proj9operation26CoordinateOperationContext7PrivateEJEENSt8__detail9_MakeUniqIT_E15__single_objectEDpOT0_.exit unwind label %3, !noalias !10

3:                                                ; preds = %1
  %4 = landingpad { ptr, i32 }
          cleanup
  tail call void @_ZdlPvm(ptr noundef nonnull %2, i64 noundef 128) #33, !noalias !10
  resume { ptr, i32 } %4

_ZSt11make_uniqueIN5osgeo4proj9operation26CoordinateOperationContext7PrivateEJEENSt8__detail9_MakeUniqIT_E15__single_objectEDpOT0_.exit: ; preds = %1
  %5 = getelementptr inbounds nuw i8, ptr %0, i64 8
  store ptr %2, ptr %5, align 8, !tbaa !6, !alias.scope !10
  ret void
}